(dp0
VBFZ online foil
p1
I274
sVC13 online nonfoil exists
p2
I1
sVVIS paper nonfoil
p3
I0
sVEXO paper foil
p4
I0
sVMMA online nonfoil
p5
I229
sVALL online nonfoil
p6
I16
sVAER paper nonfoil
p7
I194
sVDDG online foil exists
p8
I0
sV3ED paper nonfoil exists
p9
I1
sVMMQ paper nonfoil exists
p10
I0
sVCNS paper nonfoil
p11
I197
sVJUD online foil
p12
I143
sVDGM online nonfoil
p13
I156
sVDDK online nonfoil exists
p14
I1
sVV15 online foil
p15
I0
sVTPR paper nonfoil exists
p16
I0
sVCMA paper nonfoil
p17
I284
sVDIS paper foil
p18
I180
sVDD3_JVC paper foil
p19
I0
sVMBS paper nonfoil
p20
I145
sVARB paper foil
p21
I145
sVMIR paper nonfoil
p22
I0
sVDDI online foil
p23
I0
sVDDP paper foil
p24
I0
sVPD2 online nonfoil exists
p25
I0
sVTMP online nonfoil exists
p26
I0
sVALA paper nonfoil exists
p27
I1
sVMMQ paper foil exists
p28
I0
sS'PZ2 online nonfoil'
p29
I73
sVV14 paper foil
p30
I0
sVM11 online foil
p31
I229
sVTMP paper nonfoil exists
p32
I0
sVKTK online nonfoil
p33
I249
sVGPT paper nonfoil
p34
I165
sVHOP paper foil exists
p35
I0
sVODY paper nonfoil exists
p36
I0
sVATQ paper foil
p37
I0
sVDDH online nonfoil exists
p38
I1
sVUSG online foil
p39
I0
sVDD3_EVG online nonfoil
p40
I0
sVALA online nonfoil exists
p41
I1
sVMMQ online foil
p42
I0
sVRTR online foil
p43
I249
sVLEA paper foil exists
p44
I0
sVDRK paper nonfoil
p45
I119
sVGPT online foil
p46
I165
sVDGM online foil
p47
I156
sVROE online nonfoil
p48
I228
sVH09 paper foil exists
p49
I0
sVCM1 paper nonfoil
p50
I18
sVFEM online foil
p51
I0
sVDDD online nonfoil exists
p52
I1
sVSHM paper foil exists
p53
I1
sVV13 paper foil
p54
I0
sVDTK paper foil exists
p55
I1
sVME3 paper nonfoil exists
p56
I0
sVH09 online nonfoil exists
p57
I1
sVROE paper nonfoil exists
p58
I1
sVDTK online foil exists
p59
I1
sVCM1 paper foil
p60
I0
sVULG online nonfoil exists
p61
I0
sVDRK online foil
p62
I0
sV5DN online nonfoil
p63
I165
sVHOP online foil exists
p64
I0
sVCEI online foil
p65
I0
sVVIS online foil
p66
I0
sVDDQ online nonfoil
p67
I0
sVE01 online foil
p68
I0
sVMIR paper nonfoil exists
p69
I0
sVAPC paper foil
p70
I0
sVCED paper foil exists
p71
I0
sVPLS paper foil exists
p72
I0
sVEVG online foil exists
p73
I0
sVDKA online nonfoil
p74
I158
sVUSG online nonfoil
p75
I0
sVDRB paper foil exists
p76
I0
sVFRF paper nonfoil
p77
I175
sVEXP online foil
p78
I45
sVISD online nonfoil
p79
I250
sVM13 paper foil
p80
I229
sVM15 paper foil
p81
I249
sVHOP paper foil
p82
I0
sVDDQ online foil exists
p83
I0
sVBOK paper nonfoil exists
p84
I1
sV4ED online nonfoil exists
p85
I0
sVDDC paper foil exists
p86
I0
sVCMA online foil exists
p87
I0
sVOGW online nonfoil
p88
I186
sVMOR online foil
p89
I150
sVMPS online nonfoil
p90
I0
sVM15 online foil exists
p91
I1
sVAKH online foil
p92
I269
sVAPC online nonfoil
p93
I0
sVDDS online foil
p94
I0
sVV10 paper nonfoil
p95
I15
sVDDF online nonfoil
p96
I71
sVM15 paper nonfoil
p97
I264
sVMMA online nonfoil exists
p98
I1
sVSOI online foil
p99
I297
sVBNG paper foil exists
p100
I1
sVDD3_GVL paper foil exists
p101
I0
sVEMA online foil exists
p102
I1
sVM11 online nonfoil
p103
I229
sVDDF online foil
p104
I0
sVV10 paper foil
p105
I0
sVNPH paper nonfoil
p106
I165
sVV12 online nonfoil exists
p107
I1
sVDD3_DVD paper nonfoil
p108
I0
sVV16 online foil
p109
I0
sVDD3_EVG online foil
p110
I0
sVC16 paper nonfoil exists
p111
I1
sVDST paper nonfoil exists
p112
I1
sVFEM paper nonfoil exists
p113
I1
sVM12 paper foil exists
p114
I1
sVGTC paper nonfoil
p115
I249
sVEVG paper foil exists
p116
I0
sVV12 paper nonfoil
p117
I15
sVMED online nonfoil exists
p118
I1
sVEMN paper nonfoil
p119
I205
sVFUT online foil
p120
I180
sVAVR paper nonfoil exists
p121
I1
sVC14 paper foil
p122
I0
sVPC2 online foil
p123
I0
sVTOR paper nonfoil exists
p124
I1
sVONS online foil
p125
I330
sVPLC online foil
p126
I165
sV2ED online nonfoil
p127
I0
sVME3 online foil exists
p128
I1
sVJOU paper foil exists
p129
I1
sVWTH online foil exists
p130
I0
sVDGM paper foil
p131
I156
sVDD3_EVG online foil exists
p132
I0
sVWTH online foil
p133
I0
sV3ED online foil
p134
I0
sVFUT paper foil
p135
I180
sVGPT online nonfoil
p136
I165
sVDDN online nonfoil
p137
I0
sVMM3 paper nonfoil exists
p138
I1
sVALL paper foil
p139
I0
sVDDC paper nonfoil
p140
I54
sVALL paper nonfoil exists
p141
I1
sVLGN paper nonfoil exists
p142
I1
sVDDG online nonfoil exists
p143
I1
sVINV online foil exists
p144
I0
sVPCY paper foil exists
p145
I0
sVDDI paper nonfoil
p146
I67
sVM10 paper nonfoil
p147
I229
sV6ED paper foil exists
p148
I0
sVNPH online nonfoil exists
p149
I1
sVV12 online nonfoil
p150
I15
sVMMA paper nonfoil
p151
I229
sVVMA paper nonfoil
p152
I0
sVDST paper foil
p153
I165
sV6ED online foil
p154
I0
sVUDS paper foil
p155
I0
sV6ED online nonfoil exists
p156
I0
sVV15 online foil exists
p157
I0
sVFUT paper nonfoil exists
p158
I1
sVME4 paper nonfoil
p159
I0
sVV11 online nonfoil
p160
I15
sVFRF online nonfoil
p161
I175
sVLEG paper nonfoil
p162
I310
sVDDQ online nonfoil exists
p163
I0
sVDDR paper nonfoil exists
p164
I1
sVVMA paper foil
p165
I0
sVDD2 online foil exists
p166
I0
sVBNG online foil exists
p167
I1
sVDDH online foil
p168
I0
sVCSP paper foil exists
p169
I1
sVLEA paper nonfoil
p170
I283
sVBFZ paper foil exists
p171
I1
sVICE paper nonfoil exists
p172
I1
sVEXO online nonfoil exists
p173
I0
sV3ED paper foil
p174
I0
sVDDL online nonfoil
p175
I65
sV5ED paper nonfoil
p176
I428
sVME4 paper foil exists
p177
I0
sVDDD paper nonfoil
p178
I55
sVCED online foil
p179
I0
sVSOM online foil
p180
I229
sVM13 online foil
p181
I229
sVM13 paper foil exists
p182
I1
sVDTK online foil
p183
I249
sVDDJ online foil
p184
I0
sVTSB online nonfoil exists
p185
I1
sVBFZ paper nonfoil
p186
I299
sVPLS paper foil
p187
I0
sVLEA paper foil
p188
I0
sVEXO paper foil exists
p189
I0
sVALA online nonfoil
p190
I229
sVALL paper nonfoil
p191
I92
sVDD3_GVL paper foil
p192
I0
sV2ED paper nonfoil
p193
I287
sVDDG online foil
p194
I0
sVORI online nonfoil
p195
I252
sVME2 online nonfoil exists
p196
I1
sVMPS_AKH online foil exists
p197
I0
sVLRW paper foil exists
p198
I1
sVORI online foil exists
p199
I1
sV7ED paper nonfoil
p200
I0
sVBFZ online nonfoil exists
p201
I1
sVDDF paper nonfoil
p202
I71
sVEVE online nonfoil exists
p203
I1
sVM10 online foil
p204
I229
sVFRF online nonfoil exists
p205
I1
sVKTK online foil
p206
I249
sVGPT paper foil
p207
I165
sVMMQ online nonfoil exists
p208
I0
sVSOK paper foil
p209
I165
sVJOU paper nonfoil
p210
I165
sVATQ paper nonfoil exists
p211
I1
sVEVG online nonfoil
p212
I54
sVDDR online nonfoil
p213
I0
sVM14 online nonfoil
p214
I229
sVICE online nonfoil
p215
I31
sVPCA paper foil
p216
I0
sVCN2 paper foil
p217
I220
sVC16 paper foil
p218
I0
sVSOI paper foil
p219
I297
sVDDP online nonfoil
p220
I0
sVCMD paper nonfoil exists
p221
I1
sVBOK online nonfoil
p222
I165
sV9ED paper nonfoil
p223
I339
sVDGM online nonfoil exists
p224
I1
sVROE paper foil
p225
I228
sVDD2 paper nonfoil exists
p226
I1
sVDDM online nonfoil exists
p227
I1
sVAKH paper nonfoil exists
p228
I1
sVDRB online nonfoil
p229
I15
sVME2 paper foil
p230
I0
sVATQ online nonfoil exists
p231
I0
sVDD3_GVL online foil exists
p232
I0
sVDD3_GVL online nonfoil
p233
I0
sVCMD online foil
p234
I0
sVARB online nonfoil
p235
I145
sV3ED paper nonfoil
p236
I290
sVULG online nonfoil
p237
I0
sVDDS paper foil
p238
I0
sVM15 online nonfoil
p239
I264
sVPCY online foil
p240
I0
sV9ED paper foil exists
p241
I1
sVMM2 online nonfoil
p242
I249
sV8ED paper nonfoil
p243
I337
sVCN2 online nonfoil exists
p244
I0
sVICE paper nonfoil
p245
I368
sVPCA online foil
p246
I0
sVNMS paper foil exists
p247
I0
sV9ED paper foil
p248
I330
sVV10 online foil
p249
I0
sVODY paper nonfoil
p250
I0
sVME4 online nonfoil exists
p251
I1
sVDD3_GVL paper nonfoil exists
p252
I0
sVWWK online nonfoil exists
p253
I1
sVALL online foil
p254
I0
sVONS paper foil
p255
I330
sVDD3_GVL online foil
p256
I0
sVCM1 online foil
p257
I0
sVDDF paper foil
p258
I0
sVTHS paper nonfoil
p259
I229
sVZEN online foil exists
p260
I1
sVARN online foil exists
p261
I0
sVDD3_DVD paper nonfoil exists
p262
I0
sVCHK paper nonfoil exists
p263
I1
sVCN2 online foil exists
p264
I0
sVDD2 online nonfoil
p265
I54
sVSOM paper nonfoil
p266
I229
sVDDI paper nonfoil exists
p267
I1
sVM11 paper foil exists
p268
I1
sVDDM paper nonfoil
p269
I73
sVJUD paper foil exists
p270
I1
sVM10 online foil exists
p271
I1
sVJOU online foil exists
p272
I1
sV4ED paper foil
p273
I0
sVVIS paper foil exists
p274
I0
sVDDE online nonfoil
p275
I65
sVLGN paper nonfoil
p276
I145
sVTMP online foil exists
p277
I0
sVWWK online nonfoil
p278
I145
sVEXO online nonfoil
p279
I0
sVC14 paper nonfoil
p280
I317
sVARC paper nonfoil exists
p281
I1
sVDST paper foil exists
p282
I1
sVLEG paper foil
p283
I0
sVMM3 paper foil
p284
I249
sVAER paper foil exists
p285
I1
sVV09 online nonfoil
p286
I15
sVMIR paper foil
p287
I0
sVCHR online nonfoil
p288
I0
sVARC online nonfoil
p289
I0
sVM14 online foil exists
p290
I1
sVJOU online foil
p291
I165
sVDDH paper foil
p292
I0
sV9ED online foil exists
p293
I1
sVC15 paper foil
p294
I0
sVC13 paper foil
p295
I0
sVSOK online nonfoil exists
p296
I1
sVLEB online nonfoil
p297
I0
sVRAV paper foil exists
p298
I1
sVMRD online foil
p299
I286
sVTSB paper foil
p300
I121
sVDD3_DVD paper foil
p301
I0
sVONS paper foil exists
p302
I1
sVCEI paper nonfoil exists
p303
I0
sVFEM online foil exists
p304
I0
sVDIS paper foil exists
p305
I1
sVPC2 online foil exists
p306
I0
sVDIS online nonfoil exists
p307
I1
sVVIS paper foil
p308
I0
sVMPS paper foil exists
p309
I0
sVORI paper foil
p310
I252
sVDTK paper foil
p311
I249
sVNPH paper foil
p312
I165
sVE01 paper nonfoil exists
p313
I1
sV10E online nonfoil exists
p314
I1
sV5DN online foil exists
p315
I1
sVMM2 online foil
p316
I249
sVM10 online nonfoil
p317
I229
sVPD2 paper foil
p318
I0
sVLEA online nonfoil
p319
I0
sV5DN paper nonfoil
p320
I165
sVHML online nonfoil exists
p321
I0
sVCON online foil exists
p322
I1
sVLEG online foil
p323
I0
sVEXO paper nonfoil exists
p324
I0
sVME4 paper foil
p325
I0
sVSOK online foil exists
p326
I1
sVBOK paper foil
p327
I165
sVDDE paper nonfoil
p328
I62
sVC14 online nonfoil
p329
I317
sVMBS online nonfoil
p330
I145
sVDDD online foil
p331
I0
sVTMP paper nonfoil
p332
I0
sVDDH online nonfoil
p333
I74
sVVMA online nonfoil exists
p334
I1
sVCHR paper nonfoil exists
p335
I1
sVZEN online foil
p336
I229
sVMM2 paper foil
p337
I249
sVWTH paper foil
p338
I0
sVC13 online foil
p339
I0
sVDDI online nonfoil exists
p340
I1
sVSTH paper foil
p341
I0
sVFRF paper foil
p342
I175
sVWTH online nonfoil
p343
I0
sVRAV paper foil
p344
I286
sVMOR paper foil
p345
I150
sVTPR paper nonfoil
p346
I0
sVPCY paper nonfoil exists
p347
I0
sVPCY online foil exists
p348
I0
sVBNG paper foil
p349
I165
sVRTR paper foil exists
p350
I1
sVRTR paper foil
p351
I249
sVCNS paper nonfoil exists
p352
I1
sVEXP paper foil exists
p353
I1
sVDDO paper foil
p354
I0
sVEVG paper nonfoil exists
p355
I1
sVM13 online nonfoil exists
p356
I1
sVMMQ paper foil
p357
I0
sVH09 paper nonfoil
p358
I36
sVAER online nonfoil
p359
I194
sVPD3 online nonfoil
p360
I0
sVM11 online nonfoil exists
p361
I1
sVDST paper nonfoil
p362
I165
sVV09 online foil exists
p363
I0
sVVIS online nonfoil exists
p364
I0
sVMPS paper foil
p365
I0
sVCHR paper nonfoil
p366
I111
sV3ED online nonfoil exists
p367
I0
sVAKH online nonfoil
p368
I287
sVSOK paper nonfoil exists
p369
I1
sVDGM paper nonfoil exists
p370
I1
sVME4 online foil
p371
I257
sVDDN paper foil exists
p372
I0
sVJUD paper nonfoil exists
p373
I1
sVDDJ online nonfoil
p374
I74
sVSCG paper foil
p375
I143
sVFEM paper nonfoil
p376
I67
sV7ED online foil exists
p377
I0
sVHML paper nonfoil
p378
I90
sVH09 paper foil
p379
I0
sVMPS_AKH paper nonfoil
p380
I0
sVLEA online foil
p381
I0
sVCSP online nonfoil
p382
I155
sVFEM online nonfoil exists
p383
I0
sVSTH online foil exists
p384
I0
sVJUD paper nonfoil
p385
I143
sVDDS paper nonfoil exists
p386
I1
sVCN2 paper nonfoil
p387
I221
sVPCA paper nonfoil
p388
I131
sVCNS online nonfoil
p389
I0
sVCHR paper foil exists
p390
I0
sVHOU paper foil exists
p391
I1
sVDDK paper nonfoil exists
p392
I1
sVH09 online nonfoil
p393
I41
sVV14 paper foil exists
p394
I0
sVMRD paper nonfoil
p395
I286
sVDKA online foil
p396
I158
sVV09 paper nonfoil
p397
I15
sVMM2 paper nonfoil
p398
I249
sVOGW paper foil
p399
I184
sVE01 paper foil exists
p400
I0
sVARN online nonfoil exists
p401
I0
sVMM3 online nonfoil
p402
I249
sVDD2 online foil
p403
I0
sVDTK paper nonfoil exists
p404
I1
sV2ED online foil
p405
I0
sVULG paper foil
p406
I0
sVDDJ paper foil exists
p407
I0
sVCM1 online foil exists
p408
I0
sVDDC online nonfoil exists
p409
I1
sVCSP online nonfoil exists
p410
I1
sVSOM paper nonfoil exists
p411
I1
sVPC2 paper nonfoil
p412
I131
sVTSP online nonfoil
p413
I281
sVBFZ online nonfoil
p414
I274
sVDDS online nonfoil
p415
I0
sVVMA online foil exists
p416
I1
sVCN2 online nonfoil
p417
I0
sVME4 online nonfoil
p418
I257
sVDD3_DVD online nonfoil
p419
I0
sVLEG online foil exists
p420
I0
sVUSG paper foil
p421
I0
sVKTK paper nonfoil
p422
I249
sVEMN online foil exists
p423
I1
sVM10 paper foil exists
p424
I1
sVTPR paper foil
p425
I0
sVDD3_GVL paper nonfoil
p426
I0
sV3ED paper foil exists
p427
I0
sVV13 paper nonfoil exists
p428
I1
sVMM2 online nonfoil exists
p429
I1
sV8ED online nonfoil exists
p430
I1
sVISD paper nonfoil
p431
I249
sVAPC paper nonfoil
p432
I0
sVCHK paper foil exists
p433
I1
sVSOM paper foil exists
p434
I1
sVCSP paper nonfoil exists
p435
I1
sVMRD online nonfoil
p436
I286
sVTOR paper foil exists
p437
I1
sVLEB paper foil
p438
I0
sVLGN paper foil exists
p439
I1
sS'PZ1 online foil'
p440
I149
sVLEB paper nonfoil exists
p441
I1
sVDTK online nonfoil
p442
I249
sVCED paper nonfoil exists
p443
I0
sVDIS paper nonfoil
p444
I180
sVDD3_EVG paper nonfoil
p445
I0
sVSOI paper nonfoil exists
p446
I1
sVSCG paper nonfoil exists
p447
I1
sVC16 online nonfoil exists
p448
I0
sVC13 paper foil exists
p449
I0
sVDDS paper nonfoil
p450
I56
sVDDP online foil
p451
I0
sVSCG online nonfoil exists
p452
I1
sV10E paper nonfoil exists
p453
I1
sVDDC online foil exists
p454
I0
sVORI online foil
p455
I252
sVDDQ online foil
p456
I0
sVV11 paper foil exists
p457
I0
sVGTC online nonfoil exists
p458
I1
sVATQ paper nonfoil
p459
I80
sVCHK online foil exists
p460
I1
sVM13 paper nonfoil exists
p461
I1
sVCON paper nonfoil exists
p462
I1
sVBOK paper nonfoil
p463
I165
sVDDD paper foil exists
p464
I0
sVDDE online foil exists
p465
I0
sVARB paper nonfoil
p466
I145
sVCHR online foil exists
p467
I0
sVNMS online foil
p468
I0
sVPCA online foil exists
p469
I0
sVMIR online foil
p470
I0
sVE01 online nonfoil exists
p471
I0
sVALA paper foil
p472
I229
sVDD3_EVG paper foil exists
p473
I0
sVSOM online nonfoil exists
p474
I1
sVZEN paper foil exists
p475
I1
sVDDF paper foil exists
p476
I0
sVMMA paper nonfoil exists
p477
I1
sV10E online foil exists
p478
I1
sVM11 online foil exists
p479
I1
sVEMN online nonfoil
p480
I206
sVDDO paper nonfoil exists
p481
I1
sVMMA paper foil exists
p482
I1
sVDDM online foil
p483
I0
sVPD3 paper nonfoil exists
p484
I1
sVHOU online nonfoil exists
p485
I1
sVHOU online nonfoil
p486
I199
sVV14 paper nonfoil
p487
I15
sVPD3 paper nonfoil
p488
I26
sVDD3_GVL online nonfoil exists
p489
I0
sVORI online nonfoil exists
p490
I1
sV9ED paper nonfoil exists
p491
I1
sVTSB paper foil exists
p492
I1
sVLRW online nonfoil
p493
I281
sVTSP online nonfoil exists
p494
I1
sVBFZ paper foil
p495
I288
sVTHS paper foil exists
p496
I1
sVCHK online foil
p497
I286
sV6ED online nonfoil
p498
I0
sVSOK paper nonfoil
p499
I165
sVCON paper foil
p500
I145
sVTOR paper foil
p501
I143
sVC15 online foil exists
p502
I0
sV5DN paper foil
p503
I165
sV2ED paper foil
p504
I0
sVC15 paper nonfoil exists
p505
I1
sVDDO paper foil exists
p506
I0
sVM10 online nonfoil exists
p507
I1
sVSCG paper foil exists
p508
I1
sVLRW paper nonfoil exists
p509
I1
sVMRD paper foil
p510
I286
sVDD3_JVC paper nonfoil exists
p511
I0
sVDDH online foil exists
p512
I0
sVGTC paper foil
p513
I249
sVC16 paper foil exists
p514
I0
sVHML online foil exists
p515
I0
sVVIS paper nonfoil exists
p516
I0
sVCED online nonfoil exists
p517
I0
sVORI paper nonfoil
p518
I252
sVAKH paper foil
p519
I267
sVCNS online nonfoil exists
p520
I0
sVATQ online nonfoil
p521
I0
sVPD2 online foil
p522
I0
sVTOR online foil
p523
I143
sVME3 online foil
p524
I220
sV6ED online foil exists
p525
I0
sVC15 online nonfoil
p526
I0
sVRAV paper nonfoil exists
p527
I1
sVCMD online nonfoil
p528
I298
sVV09 online foil
p529
I0
sS'PZ2 paper foil'
p530
I0
sVODY paper foil exists
p531
I0
sVARB online foil exists
p532
I1
sVMIR online nonfoil exists
p533
I0
sVCSP online foil exists
p534
I1
sVEMA online nonfoil exists
p535
I1
sVME4 paper nonfoil exists
p536
I0
sVFUT online foil exists
p537
I1
sVTPR online foil
p538
I254
sVISD online foil exists
p539
I1
sVBFZ paper nonfoil exists
p540
I1
sVWWK paper nonfoil exists
p541
I1
sVV13 paper nonfoil
p542
I20
sVBFZ online foil exists
p543
I1
sV9ED online foil
p544
I339
sVDDQ paper foil exists
p545
I0
sV5DN paper foil exists
p546
I1
sV7ED paper nonfoil exists
p547
I0
sVTMP paper foil
p548
I0
sVMIR online foil exists
p549
I0
sVFEM paper foil
p550
I0
sVCED paper nonfoil
p551
I0
sVLRW paper foil
p552
I281
sVATQ online foil
p553
I0
sVVMA paper nonfoil exists
p554
I0
sVULG online foil
p555
I0
sVC14 online foil exists
p556
I0
sVPCY paper foil
p557
I0
sVV09 paper foil
p558
I0
sVEXO online foil
p559
I0
sVDDF online foil exists
p560
I0
sVDDS paper foil exists
p561
I0
sVMMQ online nonfoil
p562
I0
sVDDN online foil
p563
I0
sVDDG paper nonfoil
p564
I69
sVCSP paper foil
p565
I155
sVBNG online foil
p566
I165
sVCNS paper foil
p567
I197
sVTSP paper foil
p568
I281
sVMPS paper nonfoil
p569
I0
sVRAV online foil
p570
I286
sVINV paper nonfoil exists
p571
I0
sVPC2 online nonfoil
p572
I131
sVNMS online nonfoil
p573
I0
sVARB online foil
p574
I145
sVONS online nonfoil exists
p575
I1
sVNMS online nonfoil exists
p576
I0
sVM13 paper nonfoil
p577
I229
sVMM3 paper foil exists
p578
I1
sVEXP paper foil
p579
I45
sVDRB online nonfoil exists
p580
I1
sVSOK paper foil exists
p581
I1
sVGPT paper nonfoil exists
p582
I1
sVKTK online nonfoil exists
p583
I1
sVRAV online foil exists
p584
I1
sV7ED paper foil exists
p585
I0
sVPCY online nonfoil exists
p586
I0
sVTHS online nonfoil exists
p587
I1
sVEVE paper nonfoil
p588
I180
sV4ED online foil exists
p589
I0
sVV12 online foil
p590
I0
sVMM3 online nonfoil exists
p591
I1
sVDTK paper nonfoil
p592
I249
sVM12 online nonfoil
p593
I229
sVMM3 paper nonfoil
p594
I249
sVEMN paper foil
p595
I205
sVM15 paper nonfoil exists
p596
I1
sVPD2 paper nonfoil exists
p597
I1
sVV14 online foil exists
p598
I0
sVEMA online foil
p599
I249
sVDDK paper foil
p600
I0
sVROE paper nonfoil
p601
I228
sS'PZ2 online foil exists'
p602
I1
sVCM1 paper foil exists
p603
I0
sVDDJ paper foil
p604
I0
sVPLS paper nonfoil exists
p605
I0
sVTSB online nonfoil
p606
I121
sVM14 paper foil
p607
I229
sVKTK paper foil
p608
I249
sVBOK online nonfoil exists
p609
I1
sVTHS online nonfoil
p610
I229
sVNMS paper nonfoil exists
p611
I0
sVV16 paper nonfoil
p612
I15
sVPCY paper nonfoil
p613
I0
sVDGM online foil exists
p614
I1
sVE01 paper foil
p615
I0
sVTPR online foil exists
p616
I1
sVM12 online foil exists
p617
I1
sVEMN paper foil exists
p618
I1
sVDDP paper nonfoil
p619
I75
sVLEA online foil exists
p620
I0
sVM15 online nonfoil exists
p621
I1
sVV13 online nonfoil exists
p622
I1
sVISD online nonfoil exists
p623
I1
sVDDP online nonfoil exists
p624
I0
sVDDN paper nonfoil
p625
I67
sVDRB paper nonfoil
p626
I15
sVE01 online nonfoil
p627
I0
sVCMD online nonfoil exists
p628
I1
sVDD2 paper foil
p629
I0
sVV13 online nonfoil
p630
I20
sVV15 paper foil exists
p631
I0
sVLRW online nonfoil exists
p632
I1
sVFRF paper foil exists
p633
I1
sVHOU online foil
p634
I199
sVPD3 paper foil
p635
I0
sV5ED online foil
p636
I0
sVC13 online nonfoil
p637
I336
sVLEB paper foil exists
p638
I0
sVMBS online nonfoil exists
p639
I1
sVM14 online nonfoil exists
p640
I1
sVSHM online nonfoil exists
p641
I1
sVROE online foil exists
p642
I1
sVM14 paper nonfoil
p643
I229
sVLEG online nonfoil exists
p644
I0
sVMRD online nonfoil exists
p645
I1
sV7ED online nonfoil
p646
I0
sVMRD paper foil exists
p647
I1
sV6ED paper nonfoil exists
p648
I1
sVSOM paper foil
p649
I229
sVV11 paper foil
p650
I0
sVCED online foil exists
p651
I0
sVLEG online nonfoil
p652
I0
sVSTH online nonfoil
p653
I0
sVONS online foil exists
p654
I1
sVCMA online nonfoil exists
p655
I0
sVM12 online foil
p656
I229
sVME3 paper nonfoil
p657
I0
sVPLS online foil
p658
I0
sVPC2 paper foil exists
p659
I0
sVODY online foil exists
p660
I0
sVFUT paper foil exists
p661
I1
sV4ED online nonfoil
p662
I0
sVV11 paper nonfoil exists
p663
I1
sVBNG online nonfoil
p664
I165
sVDDE paper foil exists
p665
I0
sVC14 paper foil exists
p666
I0
sVC16 online nonfoil
p667
I0
sVEXP online nonfoil
p668
I45
sVFUT online nonfoil exists
p669
I1
sVDDI paper foil
p670
I0
sVWWK paper foil
p671
I145
sVDRK online foil exists
p672
I0
sVKLD paper foil
p673
I259
sVTSP paper nonfoil exists
p674
I1
sVBOK paper foil exists
p675
I1
sVULG paper nonfoil
p676
I0
sS'PZ1 paper nonfoil'
p677
I0
sV10E paper foil exists
p678
I1
sVDDL online foil
p679
I0
sVSOK online foil
p680
I165
sVC16 online foil
p681
I0
sVHOU online foil exists
p682
I1
sVPD3 paper foil exists
p683
I0
sVDST online nonfoil
p684
I165
sVDDR online foil
p685
I0
sVCMA paper foil
p686
I0
sVDRB paper nonfoil exists
p687
I1
sVPD2 paper nonfoil
p688
I30
sVRAV online nonfoil
p689
I286
sVTMP online nonfoil
p690
I0
sVMBS paper foil
p691
I145
sVBNG online nonfoil exists
p692
I1
sVSHM paper nonfoil exists
p693
I1
sVEMA paper nonfoil
p694
I249
sVDD3_EVG paper nonfoil exists
p695
I0
sVMOR paper foil exists
p696
I1
sVATQ paper foil exists
p697
I0
sVE01 paper nonfoil
p698
I96
sVHOP online nonfoil exists
p699
I0
sVZEN paper foil
p700
I229
sVDDC online foil
p701
I0
sS'PZ1 paper foil exists'
p702
I0
sVJUD online nonfoil
p703
I143
sV10E online nonfoil
p704
I363
sV7ED paper foil
p705
I0
sVM11 paper foil
p706
I229
sVDIS paper nonfoil exists
p707
I1
sVTSP paper foil exists
p708
I1
sVDDN online nonfoil exists
p709
I0
sVMOR paper nonfoil
p710
I150
sVARN paper foil exists
p711
I0
sVAPC online foil
p712
I0
sVORI paper foil exists
p713
I1
sV6ED paper nonfoil
p714
I330
sVCHK paper foil
p715
I285
sVNPH paper foil exists
p716
I1
sVDRK paper foil
p717
I0
sVSTH online foil
p718
I0
sVDGM paper foil exists
p719
I1
sVPD3 online nonfoil exists
p720
I0
sVCMD paper foil exists
p721
I0
sVAVR paper foil
p722
I229
sVMPS paper nonfoil exists
p723
I0
sVALA online foil exists
p724
I1
sVEXO paper nonfoil
p725
I0
sVV11 online nonfoil exists
p726
I1
sVPC2 paper nonfoil exists
p727
I1
sVDDR online nonfoil exists
p728
I0
sVCON online nonfoil
p729
I145
sVDDF online nonfoil exists
p730
I1
sVNPH online nonfoil
p731
I165
sV6ED paper foil
p732
I0
sVINV online nonfoil exists
p733
I0
sVCMA online foil
p734
I0
sS'PZ1 online nonfoil exists'
p735
I1
sVEVG paper foil
p736
I0
sVHOU paper nonfoil exists
p737
I1
sVMMA online foil exists
p738
I1
sVHOP paper nonfoil
p739
I0
sVLEA online nonfoil exists
p740
I0
sV3ED online foil exists
p741
I0
sVME2 online nonfoil
p742
I245
sVH09 online foil
p743
I0
sVAPC paper nonfoil exists
p744
I0
sVCN2 paper foil exists
p745
I1
sVC15 online foil
p746
I0
sVZEN online nonfoil
p747
I229
sVMBS online foil exists
p748
I1
sVAVR online nonfoil
p749
I229
sVC16 online foil exists
p750
I0
sVC13 online foil exists
p751
I0
sVMM2 online foil exists
p752
I1
sVPD2 online foil exists
p753
I0
sVCMD paper nonfoil
p754
I298
sVSTH paper nonfoil exists
p755
I0
sVARN online nonfoil
p756
I0
sVDDG online nonfoil
p757
I69
sVEVE paper foil
p758
I180
sVHML online nonfoil
p759
I0
sVORI paper nonfoil exists
p760
I1
sVTOR paper nonfoil
p761
I143
sVMPS_AKH online nonfoil
p762
I0
sVAVR online foil exists
p763
I1
sVULG paper nonfoil exists
p764
I0
sVDDO online foil exists
p765
I0
sVV11 online foil
p766
I0
sV2ED paper foil exists
p767
I0
sVCEI paper nonfoil
p768
I0
sVSOI paper foil exists
p769
I1
sVPD2 paper foil exists
p770
I0
sVME2 online foil exists
p771
I1
sVDDL paper foil
p772
I0
sVMIR paper foil exists
p773
I0
sV3ED online nonfoil
p774
I0
sVAPC online nonfoil exists
p775
I0
sVMOR online nonfoil
p776
I150
sVICE online foil
p777
I0
sVPD3 online foil
p778
I0
sVPCA online nonfoil
p779
I0
sVISD online foil
p780
I250
sVDRK online nonfoil exists
p781
I0
sVDDS online nonfoil exists
p782
I0
sVDDH paper nonfoil
p783
I72
sVDDE online nonfoil exists
p784
I1
sV4ED paper nonfoil exists
p785
I1
sVTHS online foil exists
p786
I1
sVCEI online foil exists
p787
I0
sVARC paper foil
p788
I0
sVISD paper nonfoil exists
p789
I1
sVUDS online foil
p790
I0
sVKLD paper foil exists
p791
I1
sVM10 paper foil
p792
I229
sVTMP paper foil exists
p793
I0
sVDDG paper foil exists
p794
I0
sVKLD online foil
p795
I264
sV8ED online nonfoil
p796
I337
sVTSB paper nonfoil exists
p797
I1
sVDDE paper nonfoil exists
p798
I1
sVDST online nonfoil exists
p799
I1
sVTSP online foil exists
p800
I1
sVV10 online foil exists
p801
I0
sVBOK online foil exists
p802
I1
sVEVG online foil
p803
I0
sVCMA online nonfoil
p804
I0
sVMPS online foil
p805
I0
sVHML paper nonfoil exists
p806
I1
sVDD3_DVD paper foil exists
p807
I0
sVTOR online foil exists
p808
I1
sVGTC online nonfoil
p809
I249
sVCN2 paper nonfoil exists
p810
I1
sVM14 paper nonfoil exists
p811
I1
sVDDM paper foil exists
p812
I0
sVDDE paper foil
p813
I0
sVDKA paper foil
p814
I158
sVSOI paper nonfoil
p815
I297
sVTOR online nonfoil
p816
I143
sVDD3_EVG online nonfoil exists
p817
I0
sVMOR paper nonfoil exists
p818
I1
sV10E paper nonfoil
p819
I363
sVDDC paper nonfoil exists
p820
I1
sVSCG online nonfoil
p821
I143
sV4ED paper nonfoil
p822
I362
sVDDR paper foil exists
p823
I0
sVARN paper nonfoil
p824
I74
sVDDD paper nonfoil exists
p825
I1
sVISD paper foil
p826
I249
sVSHM online foil exists
p827
I1
sVFRF paper nonfoil exists
p828
I1
sVUSG online foil exists
p829
I0
sVMPS_AKH online foil
p830
I0
sVARC online nonfoil exists
p831
I0
sVNPH online foil exists
p832
I1
sVMPS_AKH online nonfoil exists
p833
I0
sV10E paper foil
p834
I363
sVSCG online foil
p835
I143
sVDDG paper nonfoil exists
p836
I1
sVME2 paper nonfoil exists
p837
I0
sVDST online foil exists
p838
I1
sVEMA online nonfoil
p839
I249
sVTPR online nonfoil
p840
I249
sVUDS online foil exists
p841
I0
sVTSP paper nonfoil
p842
I281
sVDDI online nonfoil
p843
I67
sV9ED online nonfoil exists
p844
I1
sVDD3_EVG paper foil
p845
I0
sVC13 paper nonfoil
p846
I336
sVDD3_JVC online nonfoil exists
p847
I0
sVPLS online foil exists
p848
I0
sS'PZ1 paper nonfoil exists'
p849
I0
sVDDD online nonfoil
p850
I55
sVDIS online nonfoil
p851
I180
sVEVE paper foil exists
p852
I1
sVEMN paper nonfoil exists
p853
I1
sV5ED paper foil
p854
I0
sVLRW online foil exists
p855
I1
sVMMQ paper nonfoil
p856
I0
sVGPT online foil exists
p857
I1
sVDDK online nonfoil
p858
I68
sVV15 paper nonfoil
p859
I15
sVPLS online nonfoil
p860
I0
sVINV online nonfoil
p861
I0
sVCHK paper nonfoil
p862
I285
sVCEI paper foil
p863
I0
sVALA online foil
p864
I229
sVDD3_JVC online nonfoil
p865
I0
sVARB online nonfoil exists
p866
I1
sVEMN online foil
p867
I205
sVINV paper nonfoil
p868
I0
sVCHK online nonfoil exists
p869
I1
sVAER online foil
p870
I194
sVAVR paper nonfoil
p871
I229
sVCON online foil
p872
I145
sVCHR online foil
p873
I0
sVSHM online nonfoil
p874
I281
sS'PZ2 online nonfoil exists'
p875
I1
sVAVR paper foil exists
p876
I1
sVALA paper foil exists
p877
I1
sVPD2 online nonfoil
p878
I0
sVNMS paper nonfoil
p879
I0
sVPLC online nonfoil
p880
I165
sVPC2 online nonfoil exists
p881
I1
sVCM1 online nonfoil exists
p882
I0
sVRTR paper nonfoil
p883
I249
sV5ED online nonfoil exists
p884
I0
sVVMA online foil
p885
I325
sVWWK online foil
p886
I145
sVRAV online nonfoil exists
p887
I1
sVV10 paper foil exists
p888
I0
sV9ED online nonfoil
p889
I339
sVV12 paper nonfoil exists
p890
I1
sVEVE online foil exists
p891
I1
sVMED paper foil exists
p892
I0
sVPCA online nonfoil exists
p893
I0
sVME2 paper foil exists
p894
I0
sVOGW online nonfoil exists
p895
I1
sVFRF online foil exists
p896
I1
sVZEN online nonfoil exists
p897
I1
sVCN2 online foil
p898
I0
sVMRD paper nonfoil exists
p899
I1
sS'PZ1 paper foil'
p900
I0
sVDDJ paper nonfoil exists
p901
I1
sV10E online foil
p902
I363
sVNMS online foil exists
p903
I0
sVDDL paper nonfoil
p904
I65
sV4ED paper foil exists
p905
I0
sVONS online nonfoil
p906
I330
sVISD paper foil exists
p907
I1
sVSOK online nonfoil
p908
I165
sVDDJ online nonfoil exists
p909
I1
sVDRB online foil exists
p910
I0
sVMED online foil exists
p911
I1
sVCM1 online nonfoil
p912
I0
sVDRK paper foil exists
p913
I0
sVPD3 online foil exists
p914
I0
sVEMA paper foil exists
p915
I1
sVSTH paper nonfoil
p916
I0
sVFEM online nonfoil
p917
I0
sVMPS_AKH paper nonfoil exists
p918
I0
sVTSB paper nonfoil
p919
I121
sS'PZ2 paper nonfoil'
p920
I0
sVDDM online foil exists
p921
I0
sVV16 paper foil
p922
I0
sVSOI online nonfoil exists
p923
I1
sV5ED paper foil exists
p924
I0
sVALL online foil exists
p925
I0
sVCEI online nonfoil
p926
I0
sVDDO online nonfoil exists
p927
I0
sVSOM online nonfoil
p928
I229
sVDRB paper foil
p929
I0
sVDDS online foil exists
p930
I0
sVMM2 paper nonfoil exists
p931
I1
sVCHK online nonfoil
p932
I286
sVME2 online foil
p933
I245
sVDKA online foil exists
p934
I1
sVC14 online foil
p935
I0
sVOGW online foil
p936
I184
sVFRF online foil
p937
I175
sV8ED online foil
p938
I337
sVATQ online foil exists
p939
I0
sVICE paper foil exists
p940
I0
sS'PZ2 paper foil exists'
p941
I0
sVEXO online foil exists
p942
I0
sVODY paper foil
p943
I0
sVODY online nonfoil exists
p944
I0
sVSTH paper foil exists
p945
I0
sV2ED paper nonfoil exists
p946
I1
sVLEG paper foil exists
p947
I0
sVBNG paper nonfoil exists
p948
I1
sVRAV paper nonfoil
p949
I286
sVPLC online nonfoil exists
p950
I1
sS'PZ1 online nonfoil'
p951
I149
sVCON online nonfoil exists
p952
I1
sVAKH paper nonfoil
p953
I285
sVTPR online nonfoil exists
p954
I1
sVDDM online nonfoil
p955
I73
sS'PZ1 online foil exists'
p956
I1
sVM12 paper foil
p957
I229
sVNPH paper nonfoil exists
p958
I1
sVSHM online foil
p959
I281
sVJOU paper foil
p960
I165
sVICE online nonfoil exists
p961
I1
sVCSP paper nonfoil
p962
I155
sVNPH online foil
p963
I165
sVM15 paper foil exists
p964
I1
sVICE paper foil
p965
I0
sVM13 online nonfoil
p966
I229
sVEVG paper nonfoil
p967
I54
sVAKH online foil exists
p968
I1
sVULG paper foil exists
p969
I0
sVROE online nonfoil exists
p970
I1
sVDIS online foil
p971
I180
sVLEB online foil
p972
I0
sVALL paper foil exists
p973
I0
sVJUD online foil exists
p974
I1
sVRTR online nonfoil
p975
I249
sVLRW online foil
p976
I281
sVDDG paper foil
p977
I0
sVV15 online nonfoil
p978
I15
sVHOP online foil
p979
I0
sVGPT online nonfoil exists
p980
I1
sVKTK online foil exists
p981
I1
sVGPT paper foil exists
p982
I1
sVME4 online foil exists
p983
I1
sVARN paper nonfoil exists
p984
I1
sVJOU paper nonfoil exists
p985
I1
sVJOU online nonfoil exists
p986
I1
sVEXP online nonfoil exists
p987
I1
sVLGN paper foil
p988
I145
sVSTH online nonfoil exists
p989
I0
sVDD3_DVD online foil
p990
I0
sVICE online foil exists
p991
I0
sVDDQ paper foil
p992
I0
sVSHM paper foil
p993
I281
sVALL online nonfoil exists
p994
I1
sVM11 paper nonfoil
p995
I229
sVEMN online nonfoil exists
p996
I1
sVMPS online nonfoil exists
p997
I0
sVODY online foil
p998
I0
sVDD2 paper nonfoil
p999
I54
sVAER paper nonfoil exists
p1000
I1
sVAER online foil exists
p1001
I1
sVDDQ paper nonfoil exists
p1002
I1
sVFUT online nonfoil
p1003
I180
sVDDN paper foil
p1004
I0
sVDDJ paper nonfoil
p1005
I74
sVV12 paper foil
p1006
I0
sVM14 paper foil exists
p1007
I1
sVKLD online nonfoil exists
p1008
I1
sVEVG online nonfoil exists
p1009
I1
sVMMQ online foil exists
p1010
I0
sVLRW paper nonfoil
p1011
I281
sVBOK online foil
p1012
I165
sVDKA paper nonfoil exists
p1013
I1
sVFUT paper nonfoil
p1014
I180
sVPCY online nonfoil
p1015
I0
sVHML online foil
p1016
I0
sV5ED paper nonfoil exists
p1017
I1
sVMBS paper foil exists
p1018
I1
sV7ED online foil
p1019
I0
sVONS paper nonfoil
p1020
I330
sVSOM online foil exists
p1021
I1
sVDKA paper nonfoil
p1022
I158
sVMOR online nonfoil exists
p1023
I1
sVUDS paper nonfoil exists
p1024
I0
sVJOU online nonfoil
p1025
I165
sVM12 paper nonfoil exists
p1026
I1
sVMPS_AKH paper foil exists
p1027
I0
sVPLC paper foil
p1028
I165
sVDRK paper nonfoil exists
p1029
I1
sVHML paper foil exists
p1030
I0
sVINV paper foil exists
p1031
I0
sVEVE online foil
p1032
I180
sVAVR online foil
p1033
I229
sVV10 online nonfoil
p1034
I15
sVDRK online nonfoil
p1035
I0
sVH09 paper nonfoil exists
p1036
I1
sVV14 online nonfoil
p1037
I15
sVCED online nonfoil
p1038
I0
sVDDP online foil exists
p1039
I0
sVDDE online foil
p1040
I0
sVOGW paper nonfoil
p1041
I185
sVLGN online foil
p1042
I145
sVDDM paper nonfoil exists
p1043
I1
sVEMA paper nonfoil exists
p1044
I1
sVKLD paper nonfoil exists
p1045
I1
sVC15 paper foil exists
p1046
I0
sVVIS online foil exists
p1047
I0
sVM10 paper nonfoil exists
p1048
I1
sVUSG online nonfoil exists
p1049
I0
sVV15 paper foil
p1050
I0
sVINV online foil
p1051
I0
sVCSP online foil
p1052
I155
sVDDN online foil exists
p1053
I0
sVKTK paper nonfoil exists
p1054
I1
sVDD3_JVC paper foil exists
p1055
I0
sV2ED online nonfoil exists
p1056
I0
sVDRB online foil
p1057
I0
sVDDO paper nonfoil
p1058
I55
sVV11 online foil exists
p1059
I0
sVDDC online nonfoil
p1060
I54
sV5DN online foil
p1061
I165
sVARN online foil
p1062
I0
sVPC2 paper foil
p1063
I0
sVWWK online foil exists
p1064
I1
sVC15 paper nonfoil
p1065
I342
sVOGW paper nonfoil exists
p1066
I1
sVV09 paper nonfoil exists
p1067
I1
sVDDH paper nonfoil exists
p1068
I1
sVDDR paper foil
p1069
I0
sVV15 online nonfoil exists
p1070
I1
sVDGM paper nonfoil
p1071
I156
sVUDS paper foil exists
p1072
I0
sVWTH paper foil exists
p1073
I0
sVARC online foil
p1074
I0
sVDDL online nonfoil exists
p1075
I1
sVEVE paper nonfoil exists
p1076
I1
sVZEN paper nonfoil exists
p1077
I1
sVAVR online nonfoil exists
p1078
I1
sVCMD online foil exists
p1079
I0
sVDDO online foil
p1080
I0
sVEMA paper foil
p1081
I249
sVJUD paper foil
p1082
I143
sVME3 online nonfoil
p1083
I215
sVTSB online foil exists
p1084
I1
sV8ED paper foil
p1085
I330
sVM15 online foil
p1086
I264
sVM12 online nonfoil exists
p1087
I1
sVPLS online nonfoil exists
p1088
I0
sVC16 paper nonfoil
p1089
I351
sVDDD online foil exists
p1090
I0
sVCEI paper foil exists
p1091
I0
sVCON paper nonfoil
p1092
I145
sVDDC paper foil
p1093
I0
sVV10 paper nonfoil exists
p1094
I1
sVV09 paper foil exists
p1095
I0
sVDDO online nonfoil
p1096
I0
sVNMS paper foil
p1097
I0
sVDKA paper foil exists
p1098
I1
sS'PZ2 online foil'
p1099
I61
sVHML paper foil
p1100
I0
sVDDP paper foil exists
p1101
I0
sVV15 paper nonfoil exists
p1102
I1
sVE01 online foil exists
p1103
I0
sVV14 paper nonfoil exists
p1104
I1
sVMMA paper foil
p1105
I229
sVROE online foil
p1106
I228
sVPCA paper foil exists
p1107
I0
sVME3 paper foil exists
p1108
I0
sVLEA paper nonfoil exists
p1109
I1
sVAKH online nonfoil exists
p1110
I1
sVPLC paper foil exists
p1111
I1
sVKLD online foil exists
p1112
I1
sVCHR online nonfoil exists
p1113
I0
sVLGN online nonfoil exists
p1114
I1
sVDST online foil
p1115
I165
sVALA paper nonfoil
p1116
I229
sVEXP paper nonfoil
p1117
I45
sVRTR paper nonfoil exists
p1118
I1
sVCEI online nonfoil exists
p1119
I0
sV5DN paper nonfoil exists
p1120
I1
sVME2 paper nonfoil
p1121
I0
sVWTH paper nonfoil exists
p1122
I0
sVSCG paper nonfoil
p1123
I143
sVMMA online foil
p1124
I229
sVCNS online foil
p1125
I0
sVDDD paper foil
p1126
I0
sVHOP online nonfoil
p1127
I0
sVTPR paper foil exists
p1128
I0
sVRTR online foil exists
p1129
I1
sVARC paper nonfoil
p1130
I136
sVKLD paper nonfoil
p1131
I269
sVDD3_JVC paper nonfoil
p1132
I0
sV5ED online nonfoil
p1133
I0
sVTHS online foil
p1134
I229
sVOGW online foil exists
p1135
I1
sVV13 paper foil exists
p1136
I0
sVV09 online nonfoil exists
p1137
I1
sVMED paper nonfoil
p1138
I0
sVVIS online nonfoil
p1139
I0
sVRTR online nonfoil exists
p1140
I1
sVMED online nonfoil
p1141
I180
sVDD3_DVD online foil exists
p1142
I0
sVODY online nonfoil
p1143
I0
sVDDK paper nonfoil
p1144
I68
sVV16 online nonfoil
p1145
I15
sVBNG paper nonfoil
p1146
I165
sVKLD online nonfoil
p1147
I274
sVDD3_JVC online foil
p1148
I0
sVV16 online foil exists
p1149
I0
sVMM3 online foil exists
p1150
I1
sVWTH online nonfoil exists
p1151
I0
sVEXP online foil exists
p1152
I1
sVDDL online foil exists
p1153
I0
sVCM1 paper nonfoil exists
p1154
I1
sVARC paper foil exists
p1155
I0
sVM11 paper nonfoil exists
p1156
I1
sVCNS online foil exists
p1157
I0
sVCMA paper foil exists
p1158
I0
sVAPC online foil exists
p1159
I0
sVTMP online foil
p1160
I0
sVDDR online foil exists
p1161
I0
sVDKA online nonfoil exists
p1162
I1
sVUDS online nonfoil exists
p1163
I0
sVDD3_JVC online foil exists
p1164
I0
sVVMA online nonfoil
p1165
I325
sVLEB paper nonfoil
p1166
I287
sVV12 paper foil exists
p1167
I0
sVAPC paper foil exists
p1168
I0
sVDD2 online nonfoil exists
p1169
I1
sVDDQ paper nonfoil
p1170
I64
sVUSG paper foil exists
p1171
I0
sVULG online foil exists
p1172
I0
sVEXP paper nonfoil exists
p1173
I1
sVGTC online foil
p1174
I249
sVCHR paper foil
p1175
I0
sVARN paper foil
p1176
I0
sVPLC paper nonfoil exists
p1177
I1
sVC15 online nonfoil exists
p1178
I0
sVAKH paper foil exists
p1179
I1
sVSHM paper nonfoil
p1180
I281
sVARB paper nonfoil exists
p1181
I1
sVTSB online foil
p1182
I121
sVROE paper foil exists
p1183
I1
sVM14 online foil
p1184
I229
sVCNS paper foil exists
p1185
I1
sVPLC paper nonfoil
p1186
I165
sVMBS paper nonfoil exists
p1187
I1
sVCMA paper nonfoil exists
p1188
I1
sVLEB online nonfoil exists
p1189
I0
sVTHS paper foil
p1190
I229
sVUSG paper nonfoil
p1191
I0
sVM12 paper nonfoil
p1192
I229
sVPLC online foil exists
p1193
I1
sVDDR paper nonfoil
p1194
I60
sV5DN online nonfoil exists
p1195
I1
sVDDK online foil
p1196
I0
sVDDI paper foil exists
p1197
I0
sVSOI online nonfoil
p1198
I297
sVV16 paper nonfoil exists
p1199
I1
sVDDJ online foil exists
p1200
I0
sVLGN online foil exists
p1201
I1
sS'PZ2 paper nonfoil exists'
p1202
I0
sVZEN paper nonfoil
p1203
I229
sVMRD online foil exists
p1204
I1
sVDDM paper foil
p1205
I0
sVEVE online nonfoil
p1206
I180
sVC14 online nonfoil exists
p1207
I1
sVOGW paper foil exists
p1208
I1
sVARC online foil exists
p1209
I0
sVC13 paper nonfoil exists
p1210
I1
sVFEM paper foil exists
p1211
I0
sVV13 online foil
p1212
I0
sVMED online foil
p1213
I185
sVH09 online foil exists
p1214
I0
sVDDP paper nonfoil exists
p1215
I1
sVDDN paper nonfoil exists
p1216
I1
sV8ED paper foil exists
p1217
I1
sVGTC paper nonfoil exists
p1218
I1
sVHOP paper nonfoil exists
p1219
I0
sVGTC online foil exists
p1220
I1
sVWWK paper nonfoil
p1221
I145
sV8ED online foil exists
p1222
I1
sVHOU paper foil
p1223
I192
sVMBS online foil
p1224
I145
sVWTH paper nonfoil
p1225
I0
sVDDH paper foil exists
p1226
I0
sVV14 online foil
p1227
I0
sVDTK online nonfoil exists
p1228
I1
sVVMA paper foil exists
p1229
I0
sVDDK paper foil exists
p1230
I0
sVMM3 online foil
p1231
I249
sVINV paper foil
p1232
I0
sVV16 paper foil exists
p1233
I0
sVDDL paper nonfoil exists
p1234
I1
sVV11 paper nonfoil
p1235
I15
sVDD3_DVD online nonfoil exists
p1236
I0
sVUDS paper nonfoil
p1237
I0
sVPCA paper nonfoil exists
p1238
I1
sVSOI online foil exists
p1239
I1
sVUSG paper nonfoil exists
p1240
I0
sVMM2 paper foil exists
p1241
I1
sVDIS online foil exists
p1242
I1
sVJUD online nonfoil exists
p1243
I1
sVV13 online foil exists
p1244
I0
sVME3 online nonfoil exists
p1245
I1
sV5ED online foil exists
p1246
I0
sVM13 online foil exists
p1247
I1
sVDD2 paper foil exists
p1248
I0
sVARB paper foil exists
p1249
I1
sV8ED paper nonfoil exists
p1250
I1
sVV10 online nonfoil exists
p1251
I1
sV4ED online foil
p1252
I0
sVME3 paper foil
p1253
I0
sVMPS online foil exists
p1254
I0
sVDDI online foil exists
p1255
I0
sVCED paper foil
p1256
I0
sVMPS_AKH paper foil
p1257
I0
sVMED paper nonfoil exists
p1258
I0
sVV12 online foil exists
p1259
I0
sVMED paper foil
p1260
I0
sVAER online nonfoil exists
p1261
I1
sVDDL paper foil exists
p1262
I0
sVSCG online foil exists
p1263
I1
sVTSP online foil
p1264
I281
sVHOU paper nonfoil
p1265
I199
sVCON paper foil exists
p1266
I1
sVMIR online nonfoil
p1267
I0
sVC14 paper nonfoil exists
p1268
I1
sVUDS online nonfoil
p1269
I0
sVLEG paper nonfoil exists
p1270
I1
sVTOR online nonfoil exists
p1271
I1
sV2ED online foil exists
p1272
I0
sVTHS paper nonfoil exists
p1273
I1
sVCMD paper foil
p1274
I0
sVAER paper foil
p1275
I186
sVV14 online nonfoil exists
p1276
I1
sVMOR online foil exists
p1277
I1
sVV16 online nonfoil exists
p1278
I1
sVKTK paper foil exists
p1279
I1
sVDDK online foil exists
p1280
I0
sVLEB online foil exists
p1281
I0
sVDDF paper nonfoil exists
p1282
I1
sVPLS paper nonfoil
p1283
I0
sVWWK paper foil exists
p1284
I1
sVONS paper nonfoil exists
p1285
I1
sVLGN online nonfoil
p1286
I145
sVGTC paper foil exists
p1287
I1
sV7ED online nonfoil exists
p1288
I0
s.