(dp0
VBFZ online foil
p1
I274
sVVIS paper nonfoil
p2
I0
sVEXO paper foil
p3
I0
sVMMA online nonfoil
p4
I229
sVALL online nonfoil
p5
I16
sVAER paper nonfoil
p6
I194
sVCSP online foil
p7
I155
sVCNS paper nonfoil
p8
I197
sVJUD online foil
p9
I143
sVDGM online nonfoil
p10
I156
sVV15 online foil
p11
I0
sVCMA paper nonfoil
p12
I284
sVDD3_JVC paper foil
p13
I0
sVMBS paper nonfoil
p14
I145
sVCEI paper nonfoil
p15
I0
sVMIR paper nonfoil
p16
I0
sVDDI online foil
p17
I0
sVDDP paper foil
p18
I0
sVM11 online foil
p19
I0
sVKTK online nonfoil
p20
I249
sVGPT paper nonfoil
p21
I165
sVATQ paper foil
p22
I0
sVUSG online foil
p23
I0
sVDD3_EVG online nonfoil
p24
I0
sVMMQ online foil
p25
I0
sVRTR online foil
p26
I249
sVARN online foil
p27
I0
sVDGM online foil
p28
I156
sVCM1 paper nonfoil
p29
I18
sVFEM online foil
p30
I0
sV8ED online nonfoil
p31
I337
sVV13 paper foil
p32
I0
sVMBS online nonfoil
p33
I145
sVCM1 paper foil
p34
I0
sVDRK online foil
p35
I0
sV5DN online nonfoil
p36
I0
sVCEI online foil
p37
I0
sVVIS online foil
p38
I0
sVDDQ online nonfoil
p39
I0
sVE01 online foil
p40
I0
sVAPC paper foil
p41
I0
sVDKA online nonfoil
p42
I158
sVEXP online foil
p43
I45
sVM13 paper foil
p44
I0
sVM15 paper foil
p45
I249
sVHOP paper foil
p46
I0
sVOGW online nonfoil
p47
I186
sVMOR online foil
p48
I150
sVMPS online nonfoil
p49
I0
sVJOU paper nonfoil
p50
I165
sVAPC online nonfoil
p51
I0
sVV10 paper nonfoil
p52
I15
sVDDF online nonfoil
p53
I71
sVSOI online foil
p54
I297
sVM11 online nonfoil
p55
I0
sVDDF online foil
p56
I0
sVV10 paper foil
p57
I0
sVNPH paper nonfoil
p58
I0
sVE01 online nonfoil
p59
I0
sVDD3_EVG online foil
p60
I0
sVGTC paper nonfoil
p61
I249
sVV12 paper nonfoil
p62
I15
sVEMN paper nonfoil
p63
I205
sVFUT online foil
p64
I180
sVC14 paper foil
p65
I0
sVPC2 online foil
p66
I0
sVONS online foil
p67
I330
sVPLC online foil
p68
I0
sV2ED online nonfoil
p69
I0
sVDGM paper foil
p70
I156
sVWTH online foil
p71
I0
sV3ED online foil
p72
I0
sVGPT online nonfoil
p73
I165
sVDDN online nonfoil
p74
I0
sVRAV paper foil
p75
I286
sVALL paper foil
p76
I0
sVDDI paper nonfoil
p77
I67
sVM10 paper nonfoil
p78
I0
sVEMA paper foil
p79
I249
sVVMA paper nonfoil
p80
I0
sVDST paper foil
p81
I165
sVV11 online nonfoil
p82
I15
sVFRF online nonfoil
p83
I175
sVLEG paper nonfoil
p84
I0
sVC16 paper nonfoil
p85
I351
sVVMA paper foil
p86
I0
sVDDH online foil
p87
I0
sVLEA paper nonfoil
p88
I282
sVDDL online nonfoil
p89
I65
sV5ED paper nonfoil
p90
I428
sVDDD paper nonfoil
p91
I55
sVCED online foil
p92
I0
sVM13 online foil
p93
I0
sVDTK online foil
p94
I249
sVDDJ online foil
p95
I0
sVMIR online nonfoil
p96
I0
sVBFZ paper nonfoil
p97
I299
sVLEA paper foil
p98
I0
sVDDE paper foil
p99
I0
sVALA online nonfoil
p100
I229
sVALL paper nonfoil
p101
I92
sVDD3_GVL paper foil
p102
I0
sV2ED paper nonfoil
p103
I287
sVORI online nonfoil
p104
I252
sV7ED paper nonfoil
p105
I0
sVDDF paper nonfoil
p106
I71
sVM10 online foil
p107
I0
sVKTK online foil
p108
I249
sVGPT paper foil
p109
I165
sVSOK paper foil
p110
I165
sVAKH online foil
p111
I269
sVEVG online nonfoil
p112
I54
sVDDR online nonfoil
p113
I0
sVICE online nonfoil
p114
I31
sVPCA paper foil
p115
I0
sVCN2 paper foil
p116
I220
sVC16 paper foil
p117
I0
sVSOI paper foil
p118
I297
sVDDP online nonfoil
p119
I0
sVBOK online nonfoil
p120
I165
sV9ED paper nonfoil
p121
I339
sVROE paper foil
p122
I228
sVDRB online nonfoil
p123
I15
sVDD3_GVL online nonfoil
p124
I0
sVCMD online foil
p125
I0
sVARB online nonfoil
p126
I145
sV3ED paper nonfoil
p127
I290
sVULG online nonfoil
p128
I0
sVDDS paper foil
p129
I0
sVM15 online nonfoil
p130
I264
sVPCY online foil
p131
I0
sVMM2 online nonfoil
p132
I249
sV8ED paper nonfoil
p133
I337
sVICE paper nonfoil
p134
I368
sVPCA online foil
p135
I0
sV9ED paper foil
p136
I330
sVV10 online foil
p137
I0
sVALL online foil
p138
I0
sVONS paper foil
p139
I330
sVDDE paper nonfoil
p140
I62
sVCM1 online foil
p141
I0
sVDDF paper foil
p142
I0
sVDD2 online nonfoil
p143
I54
sVSOM paper nonfoil
p144
I229
sVDDM paper nonfoil
p145
I73
sVLGN paper nonfoil
p146
I145
sVWWK online nonfoil
p147
I145
sVEXO online nonfoil
p148
I0
sVC14 paper nonfoil
p149
I317
sVLEG paper foil
p150
I0
sVMM3 paper foil
p151
I249
sVV09 online nonfoil
p152
I15
sVMIR paper foil
p153
I0
sVCHR online nonfoil
p154
I0
sVDDH paper foil
p155
I0
sV4ED online nonfoil
p156
I0
sVC15 paper foil
p157
I0
sVC13 paper foil
p158
I0
sVV13 online nonfoil
p159
I20
sVLEB online nonfoil
p160
I0
sVMRD online foil
p161
I286
sVTSB paper foil
p162
I121
sVM14 online nonfoil
p163
I229
sVDKA paper nonfoil
p164
I158
sVVIS paper foil
p165
I0
sVORI paper foil
p166
I252
sVDTK paper foil
p167
I249
sVM10 online nonfoil
p168
I0
sVLEA online nonfoil
p169
I0
sV5DN paper nonfoil
p170
I0
sVM14 online foil
p171
I229
sVLEG online foil
p172
I0
sVME4 paper foil
p173
I0
sVDDC paper nonfoil
p174
I54
sVBOK paper foil
p175
I165
sVDD3_GVL online foil
p176
I0
sVC14 online nonfoil
p177
I317
sVDDD online foil
p178
I0
sVDDH online nonfoil
p179
I74
sVZEN online foil
p180
I0
sVMM2 paper foil
p181
I249
sVWTH paper foil
p182
I0
sVC13 online foil
p183
I0
sVSTH paper foil
p184
I0
sVFRF paper foil
p185
I175
sVWTH online nonfoil
p186
I0
sVTMP paper nonfoil
p187
I0
sVBNG paper foil
p188
I165
sVRTR paper foil
p189
I249
sVDDO paper foil
p190
I0
sVMMQ paper foil
p191
I0
sVH09 paper nonfoil
p192
I36
sVAER online nonfoil
p193
I194
sVPD3 online nonfoil
p194
I0
sVDST paper nonfoil
p195
I165
sVMPS paper foil
p196
I0
sVCHR paper nonfoil
p197
I111
sVAKH online nonfoil
p198
I287
sVME4 online foil
p199
I257
sVDDJ online nonfoil
p200
I74
sVSCG paper foil
p201
I143
sVFEM paper nonfoil
p202
I67
sVHML paper nonfoil
p203
I90
sVSTH online nonfoil
p204
I0
sVMPS_AKH paper nonfoil
p205
I0
sVLEA online foil
p206
I0
sVCSP online nonfoil
p207
I155
sVWTH paper nonfoil
p208
I0
sVJUD paper nonfoil
p209
I143
sVCN2 paper nonfoil
p210
I221
sVPCA paper nonfoil
p211
I131
sVCNS online nonfoil
p212
I0
sVH09 online nonfoil
p213
I41
sVDKA online foil
p214
I158
sVMM2 paper nonfoil
p215
I249
sVOGW paper foil
p216
I184
sVMM3 online nonfoil
p217
I249
sV2ED online foil
p218
I0
sVULG paper foil
p219
I0
sVBFZ online nonfoil
p220
I274
sVARB paper nonfoil
p221
I145
sVV16 online foil
p222
I0
sVCN2 online nonfoil
p223
I0
sVME4 online nonfoil
p224
I257
sVDD3_DVD online nonfoil
p225
I0
sVLGN online foil
p226
I145
sVUSG paper foil
p227
I0
sVKTK paper nonfoil
p228
I249
sVDDO paper nonfoil
p229
I55
sVTPR paper foil
p230
I0
sVDD3_GVL paper nonfoil
p231
I0
sVDRB online foil
p232
I0
sVAPC paper nonfoil
p233
I0
sVMRD online nonfoil
p234
I286
sVLEB paper foil
p235
I0
sVDTK online nonfoil
p236
I249
sVDIS paper nonfoil
p237
I180
sVHOU paper foil
p238
I192
sVTSP paper foil
p239
I281
sVDDP online foil
p240
I0
sVPD2 paper foil
p241
I0
sVORI online foil
p242
I252
sVDDQ online foil
p243
I0
sVATQ paper nonfoil
p244
I80
sVBOK paper nonfoil
p245
I165
sVDDS online nonfoil
p246
I0
sVNMS online foil
p247
I0
sVMIR online foil
p248
I0
sVALA paper foil
p249
I229
sVDDS paper nonfoil
p250
I56
sVEMN online nonfoil
p251
I206
sVAKH paper foil
p252
I267
sVDDM online foil
p253
I0
sVHOU online nonfoil
p254
I199
sVV14 paper nonfoil
p255
I15
sVPD3 paper nonfoil
p256
I26
sVBFZ paper foil
p257
I288
sVCHK online foil
p258
I286
sV6ED online nonfoil
p259
I0
sVSOK paper nonfoil
p260
I165
sVCON paper foil
p261
I145
sVTOR paper foil
p262
I143
sV5DN paper foil
p263
I0
sV2ED paper foil
p264
I0
sVMRD paper foil
p265
I286
sVDD3_EVG paper foil
p266
I0
sVGTC paper foil
p267
I249
sVORI paper nonfoil
p268
I252
sVAER online foil
p269
I194
sVATQ online nonfoil
p270
I0
sVDDK online foil
p271
I0
sVPD2 online foil
p272
I0
sVTOR online foil
p273
I143
sVME3 online foil
p274
I220
sVISD online foil
p275
I250
sVC15 online nonfoil
p276
I0
sVV09 online foil
p277
I0
sVSOI paper nonfoil
p278
I297
sVCN2 online foil
p279
I0
sVTPR online foil
p280
I254
sVV13 paper nonfoil
p281
I20
sV9ED online foil
p282
I339
sVTMP paper foil
p283
I0
sVFEM paper foil
p284
I0
sVCED paper nonfoil
p285
I0
sVLRW paper foil
p286
I281
sVATQ online foil
p287
I0
sVULG online foil
p288
I0
sVPCY paper foil
p289
I0
sVV09 paper foil
p290
I0
sVEXO online foil
p291
I0
sVICE paper foil
p292
I0
sVMMQ online nonfoil
p293
I0
sVDDG paper nonfoil
p294
I69
sVCSP paper foil
p295
I155
sVBNG online foil
p296
I165
sVMPS paper nonfoil
p297
I0
sVRAV online foil
p298
I286
sVPC2 online nonfoil
p299
I131
sVNMS online nonfoil
p300
I0
sVARB online foil
p301
I145
sVDGM paper nonfoil
p302
I156
sVCNS paper foil
p303
I197
sVEVE paper nonfoil
p304
I180
sVEVE online foil
p305
I180
sVV12 online foil
p306
I0
sVDTK paper nonfoil
p307
I249
sVM12 online nonfoil
p308
I0
sVMM3 paper nonfoil
p309
I249
sVEMN paper foil
p310
I205
sVEMA online foil
p311
I249
sVDDK paper foil
p312
I0
sVROE paper nonfoil
p313
I228
sVDDJ paper foil
p314
I0
sVM14 paper foil
p315
I229
sVKTK paper foil
p316
I249
sVARB paper foil
p317
I145
sVV16 paper nonfoil
p318
I15
sVPCY paper nonfoil
p319
I0
sVE01 paper foil
p320
I0
sVGPT online foil
p321
I165
sVDDP paper nonfoil
p322
I75
sVDDE online foil
p323
I0
sVDDN paper nonfoil
p324
I67
sVDRB paper nonfoil
p325
I15
sVDD2 paper foil
p326
I0
sVROE online nonfoil
p327
I228
sVHOU online foil
p328
I199
sVPD3 paper foil
p329
I0
sV5ED online foil
p330
I0
sVC13 online nonfoil
p331
I336
sVPLS paper foil
p332
I0
sVDDG online foil
p333
I0
sVM14 paper nonfoil
p334
I229
sVME2 paper foil
p335
I0
sVV11 paper foil
p336
I0
sVLEG online nonfoil
p337
I0
sVCHR paper foil
p338
I0
sVM12 online foil
p339
I0
sVME3 paper nonfoil
p340
I0
sVPLS online foil
p341
I0
sVWWK paper nonfoil
p342
I145
sVSCG paper nonfoil
p343
I143
sVC16 online nonfoil
p344
I0
sVEXP online nonfoil
p345
I45
sVMED online nonfoil
p346
I0
sVBNG online nonfoil
p347
I165
sVWWK paper foil
p348
I145
sVKLD paper foil
p349
I259
sVMOR paper foil
p350
I150
sVSHM paper nonfoil
p351
I281
sVULG paper nonfoil
p352
I0
sVTHS paper nonfoil
p353
I229
sVDDL online foil
p354
I0
sVSOK online foil
p355
I165
sVC16 online foil
p356
I0
sVDD3_DVD paper foil
p357
I0
sVDST online nonfoil
p358
I165
sVDDR online foil
p359
I0
sVCMA paper foil
p360
I0
sVPD2 paper nonfoil
p361
I30
sVRAV online nonfoil
p362
I286
sVTMP online nonfoil
p363
I0
sVMBS paper foil
p364
I145
sVISD paper nonfoil
p365
I249
sVEMA paper nonfoil
p366
I249
sVTSP online nonfoil
p367
I281
sVE01 paper nonfoil
p368
I96
sVZEN paper foil
p369
I0
sVDDC online foil
p370
I0
sV10E online nonfoil
p371
I363
sV7ED paper foil
p372
I0
sVM11 paper foil
p373
I0
sVRTR online nonfoil
p374
I249
sVMOR paper nonfoil
p375
I150
sVAPC online foil
p376
I0
sVM13 paper nonfoil
p377
I0
sVCHK paper foil
p378
I285
sVSTH online foil
p379
I0
sVEMA online nonfoil
p380
I249
sVEXO paper nonfoil
p381
I0
sVLRW online nonfoil
p382
I281
sVCON online nonfoil
p383
I145
sVV12 online nonfoil
p384
I15
sVNPH online nonfoil
p385
I0
sV6ED paper foil
p386
I0
sVCMA online foil
p387
I0
sVEVG paper foil
p388
I0
sVUDS paper foil
p389
I0
sVHOP paper nonfoil
p390
I0
sVCMD paper nonfoil
p391
I298
sVME2 online nonfoil
p392
I245
sVH09 online foil
p393
I0
sVC15 online foil
p394
I0
sVZEN online nonfoil
p395
I0
sVV15 online nonfoil
p396
I15
sVARN online nonfoil
p397
I0
sVDDG online nonfoil
p398
I69
sVEVE paper foil
p399
I180
sVHML online nonfoil
p400
I0
sVTOR paper nonfoil
p401
I143
sVMPS_AKH online nonfoil
p402
I0
sVV11 online foil
p403
I0
sVFEM online nonfoil
p404
I0
sVDDL paper foil
p405
I0
sV3ED online nonfoil
p406
I0
sVMOR online nonfoil
p407
I150
sVICE online foil
p408
I0
sVPD3 online foil
p409
I0
sVPCA online nonfoil
p410
I0
sVDDQ paper foil
p411
I0
sVDDH paper nonfoil
p412
I72
sVARC paper foil
p413
I0
sVUDS online foil
p414
I0
sVM10 paper foil
p415
I0
sVDIS paper foil
p416
I180
sVODY online nonfoil
p417
I0
sVAVR online foil
p418
I229
sVEVG online foil
p419
I0
sVCMA online nonfoil
p420
I0
sVMPS online foil
p421
I0
sVSOM online foil
p422
I229
sVDRK paper nonfoil
p423
I119
sVDKA paper foil
p424
I158
sVTOR online nonfoil
p425
I143
sV10E paper nonfoil
p426
I363
sVSCG online nonfoil
p427
I143
sVDD2 online foil
p428
I0
sVARN paper nonfoil
p429
I74
sVISD paper foil
p430
I249
sVME3 online nonfoil
p431
I215
sVMRD paper nonfoil
p432
I286
sV10E paper foil
p433
I363
sVSCG online foil
p434
I143
sVM15 paper nonfoil
p435
I264
sVTPR online nonfoil
p436
I249
sVTSP paper nonfoil
p437
I281
sVDDI online nonfoil
p438
I67
sVC13 paper nonfoil
p439
I336
sVDDD online nonfoil
p440
I55
sVDIS online nonfoil
p441
I180
sVCON online foil
p442
I145
sV6ED online foil
p443
I0
sV5ED paper foil
p444
I0
sVMMQ paper nonfoil
p445
I0
sVDDK online nonfoil
p446
I68
sVV15 paper nonfoil
p447
I15
sVPLS online nonfoil
p448
I0
sVINV online nonfoil
p449
I0
sVCHK paper nonfoil
p450
I285
sVCEI paper foil
p451
I0
sVALA online foil
p452
I229
sVDD3_JVC online nonfoil
p453
I0
sVEMN online foil
p454
I205
sVINV paper nonfoil
p455
I0
sVTPR paper nonfoil
p456
I0
sVCHR online foil
p457
I0
sVSHM online nonfoil
p458
I281
sVPD2 online nonfoil
p459
I0
sVNMS paper nonfoil
p460
I0
sVMM2 online foil
p461
I249
sVRTR paper nonfoil
p462
I249
sVWWK online foil
p463
I145
sV3ED paper foil
p464
I0
sVTMP online foil
p465
I0
sVV09 paper nonfoil
p466
I15
sVPC2 paper nonfoil
p467
I131
sVTHS paper foil
p468
I229
sVV14 paper foil
p469
I0
sV10E online foil
p470
I363
sVDDL paper nonfoil
p471
I65
sVONS online nonfoil
p472
I330
sVSOK online nonfoil
p473
I165
sVCM1 online nonfoil
p474
I0
sVSTH paper nonfoil
p475
I0
sVTSB paper nonfoil
p476
I121
sVDD3_DVD paper nonfoil
p477
I0
sVV16 paper foil
p478
I0
sVCEI online nonfoil
p479
I0
sVSOM online nonfoil
p480
I229
sVDRB paper foil
p481
I0
sVARC paper nonfoil
p482
I136
sVCHK online nonfoil
p483
I286
sVC14 online foil
p484
I0
sVOGW online foil
p485
I184
sVFRF online foil
p486
I175
sV8ED online foil
p487
I337
sVODY paper foil
p488
I0
sVRAV paper nonfoil
p489
I286
sVDDN online foil
p490
I0
sVTHS online nonfoil
p491
I229
sVM13 online nonfoil
p492
I0
sVAKH paper nonfoil
p493
I285
sVDDM online nonfoil
p494
I73
sVM12 paper foil
p495
I0
sVJOU paper foil
p496
I165
sVNPH online foil
p497
I0
sVEVG paper nonfoil
p498
I0
sVDIS online foil
p499
I180
sVGTC online nonfoil
p500
I249
sVLRW online foil
p501
I281
sVHOP online foil
p502
I0
sVDDO online foil
p503
I0
sVAVR paper nonfoil
p504
I229
sV9ED online nonfoil
p505
I339
sVLGN paper foil
p506
I145
sVDD3_DVD online foil
p507
I0
sVLGN online nonfoil
p508
I145
sVSHM paper foil
p509
I281
sVM11 paper nonfoil
p510
I0
sVODY online foil
p511
I0
sVDD2 paper nonfoil
p512
I54
sVDDN paper foil
p513
I0
sVDDJ paper nonfoil
p514
I74
sVMPS_AKH online foil
p515
I0
sVLRW paper nonfoil
p516
I281
sVBOK online foil
p517
I165
sVFUT paper nonfoil
p518
I180
sVPCY online nonfoil
p519
I0
sVHML online foil
p520
I0
sV4ED online foil
p521
I0
sVDDQ paper nonfoil
p522
I64
sV7ED online foil
p523
I0
sVCON paper nonfoil
p524
I145
sVDDO online nonfoil
p525
I0
sVMMA paper foil
p526
I229
sVJOU online nonfoil
p527
I165
sVPLC paper foil
p528
I0
sVV10 online nonfoil
p529
I15
sVV14 online nonfoil
p530
I15
sVCED online nonfoil
p531
I0
sVFUT paper foil
p532
I180
sVOGW paper nonfoil
p533
I185
sVME4 paper nonfoil
p534
I0
sVFUT online nonfoil
p535
I180
sVV15 paper foil
p536
I0
sVINV online foil
p537
I0
sVSHM online foil
p538
I281
sVDDC online nonfoil
p539
I54
sV5DN online foil
p540
I0
sVPC2 paper foil
p541
I0
sVC15 paper nonfoil
p542
I342
sVISD online nonfoil
p543
I250
sVDDR paper foil
p544
I0
sVEXP paper foil
p545
I45
sVARC online foil
p546
I0
sVAVR paper foil
p547
I229
sVMMA paper nonfoil
p548
I229
sVJUD paper foil
p549
I143
sVM15 online foil
p550
I264
sVDDC paper foil
p551
I0
sVNMS paper foil
p552
I0
sVODY paper nonfoil
p553
I0
sVROE online foil
p554
I228
sVONS paper nonfoil
p555
I330
sVDST online foil
p556
I165
sVALA paper nonfoil
p557
I229
sVEXP paper nonfoil
p558
I45
sV4ED paper foil
p559
I0
sVME2 paper nonfoil
p560
I0
sVCNS online foil
p561
I0
sVDDD paper foil
p562
I0
sVHOP online nonfoil
p563
I0
sVKLD paper nonfoil
p564
I269
sVDD3_JVC paper nonfoil
p565
I0
sV5ED online nonfoil
p566
I0
sVTHS online foil
p567
I229
sVDD3_EVG paper nonfoil
p568
I0
sVMED paper nonfoil
p569
I0
sVVIS online nonfoil
p570
I0
sV7ED online nonfoil
p571
I0
sVDDK paper nonfoil
p572
I68
sVV16 online nonfoil
p573
I15
sVBNG paper nonfoil
p574
I165
sVKLD online nonfoil
p575
I274
sVDDG paper foil
p576
I0
sVCMD online nonfoil
p577
I298
sVVMA online nonfoil
p578
I0
sVLEB paper nonfoil
p579
I0
sV8ED paper foil
p580
I330
sVTSB online nonfoil
p581
I121
sVGTC online foil
p582
I249
sVPLS paper nonfoil
p583
I0
sVARN paper foil
p584
I0
sVARC online nonfoil
p585
I0
sVDDI paper foil
p586
I0
sVCSP paper nonfoil
p587
I155
sVTSB online foil
p588
I121
sVPLC paper nonfoil
p589
I0
sVUSG paper nonfoil
p590
I0
sVM12 paper nonfoil
p591
I0
sVDDR paper nonfoil
p592
I60
sVH09 paper foil
p593
I0
sVSOI online nonfoil
p594
I297
sVJUD online nonfoil
p595
I143
sVKLD online foil
p596
I264
sVZEN paper nonfoil
p597
I0
sVDDM paper foil
p598
I0
sVEVE online nonfoil
p599
I180
sVFRF paper nonfoil
p600
I175
sVV13 online foil
p601
I0
sVMED online foil
p602
I0
sVVMA online foil
p603
I0
sVAVR online nonfoil
p604
I229
sVPLC online nonfoil
p605
I0
sVMBS online foil
p606
I145
sVDRK paper foil
p607
I0
sVV14 online foil
p608
I0
sVME2 online foil
p609
I245
sVMM3 online foil
p610
I249
sVINV paper foil
p611
I0
sVAER paper foil
p612
I186
sVSOM paper foil
p613
I229
sVV11 paper nonfoil
p614
I15
sVUDS paper nonfoil
p615
I0
sVLEB online foil
p616
I0
sVDRK online nonfoil
p617
I0
sVV12 paper foil
p618
I0
sVDDS online foil
p619
I0
sVDDE online nonfoil
p620
I65
sVME3 paper foil
p621
I0
sVCED paper foil
p622
I0
sVMPS_AKH paper foil
p623
I0
sVMED paper foil
p624
I0
sVHML paper foil
p625
I0
sVTSP online foil
p626
I281
sVHOU paper nonfoil
p627
I199
sVMMA online foil
p628
I229
sVUDS online nonfoil
p629
I0
sVDD3_JVC online foil
p630
I0
sV6ED paper nonfoil
p631
I330
sVJOU online foil
p632
I165
sVCMD paper foil
p633
I0
sV4ED paper nonfoil
p634
I362
sVNPH paper foil
p635
I0
sVUSG online nonfoil
p636
I0
s.